target datalayout = "e-m:e-p270:32:32-p271:32:32-p272:64:64-i64:64-i128:128-f80:128-n8:16:32:64-S128"
target triple = "x86_64-pc-linux-gnu"

@.str.17 = private unnamed_addr constant [17 x i8] c"0123456789abcdef\00", align 1

; Function Attrs: nounwind uwtable
define dso_local void @getRandomHexChars(ptr noundef %0, i64 noundef %1) #0 {
  %3 = alloca ptr, align 8
  %4 = alloca i64, align 8
  %5 = alloca ptr, align 8
  %6 = alloca i64, align 8
  store ptr %0, ptr %3, align 8, !tbaa !5
  store i64 %1, ptr %4, align 8, !tbaa !29
  call void @llvm.lifetime.start.p0(i64 8, ptr %5) #13
  store ptr @.str.17, ptr %5, align 8, !tbaa !5
  call void @llvm.lifetime.start.p0(i64 8, ptr %6) #13
  %7 = load ptr, ptr %3, align 8, !tbaa !5
  %8 = load i64, ptr %4, align 8, !tbaa !29
  call void @getRandomBytes(ptr noundef %7, i64 noundef %8)
  store i64 0, ptr %6, align 8, !tbaa !29
  br label %9

9:                                                ; preds = %27, %2
  %10 = load i64, ptr %6, align 8, !tbaa !29
  %11 = load i64, ptr %4, align 8, !tbaa !29
  %12 = icmp ult i64 %10, %11
  br i1 %12, label %13, label %30

13:                                               ; preds = %9
  %14 = load ptr, ptr %5, align 8, !tbaa !5
  %15 = load ptr, ptr %3, align 8, !tbaa !5
  %16 = load i64, ptr %6, align 8, !tbaa !29
  %17 = getelementptr inbounds nuw i8, ptr %15, i64 %16
  %18 = load i8, ptr %17, align 1, !tbaa !12
  %19 = sext i8 %18 to i32
  %20 = and i32 %19, 15
  %21 = sext i32 %20 to i64
  %22 = getelementptr inbounds i8, ptr %14, i64 %21
  %23 = load i8, ptr %22, align 1, !tbaa !12
  %24 = load ptr, ptr %3, align 8, !tbaa !5
  %25 = load i64, ptr %6, align 8, !tbaa !29
  %26 = getelementptr inbounds nuw i8, ptr %24, i64 %25
  store i8 %23, ptr %26, align 1, !tbaa !12
  br label %27

27:                                               ; preds = %13
  %28 = load i64, ptr %6, align 8, !tbaa !29
  %29 = add i64 %28, 1
  store i64 %29, ptr %6, align 8, !tbaa !29
  br label %9, !llvm.loop !64

30:                                               ; preds = %9
  call void @llvm.lifetime.end.p0(i64 8, ptr %6) #13
  call void @llvm.lifetime.end.p0(i64 8, ptr %5) #13
  ret void
}