; Function Attrs: nounwind uwtable
define dso_local void @getRandomHexChars(ptr noundef captures(none) %0, i64 noundef %1) local_unnamed_addr #4 {
  tail call void @getRandomBytes(ptr noundef %0, i64 noundef %1)
  %.not = icmp eq i64 %1, 0
  br i1 %.not, label %._crit_edge, label %.lr.ph

.lr.ph:                                           ; preds = %2, %.lr.ph
  %.09 = phi i64 [ %9, %.lr.ph ], [ 0, %2 ]
  %3 = getelementptr inbounds nuw i8, ptr %0, i64 %.09
  %4 = load i8, ptr %3, align 1, !tbaa !9
  %5 = and i8 %4, 15
  %6 = zext nneg i8 %5 to i64
  %7 = getelementptr inbounds nuw i8, ptr @HEX, i64 %6
  %8 = load i8, ptr %7, align 1, !tbaa !9
  store i8 %8, ptr %3, align 1, !tbaa !9
  %9 = add nuw i64 %.09, 1
  %exitcond.not = icmp eq i64 %9, %1
  br i1 %exitcond.not, label %._crit_edge, label %.lr.ph, !llvm.loop !54

._crit_edge:                                      ; preds = %.lr.ph, %2
  ret void
}